BL51 BANKED LINKER/LOCATER V6.22                                                        07/12/2021  20:12:08  PAGE 1


BL51 BANKED LINKER/LOCATER V6.22, INVOKED BY:
C:\KEIL_V5\C51\BIN\BL51.EXE .\outHex\main_002.obj, .\outHex\timer.obj, .\outHex\software_timer.obj, .\outHex\LCD1602.obj
>> , .\outHex\mystring.obj, .\outHex\iic.obj, .\outHex\UART.obj, .\outHex\PCF8574.obj, .\outHex\KeyBoard.obj TO .\outHex
>> \keil5_prj PRINT (.\Listings\keil5_prj.m51) RAMSIZE (256) CODE (0X0000-0X1FFF)


MEMORY MODEL: LARGE


INPUT MODULES INCLUDED:
  .\outHex\main_002.obj (MAIN_002)
  .\outHex\timer.obj (TIMER)
  .\outHex\software_timer.obj (SOFTWARE_TIMER)
  .\outHex\LCD1602.obj (LCD1602)
  .\outHex\mystring.obj (MYSTRING)
  .\outHex\iic.obj (IIC)
  .\outHex\UART.obj (UART)
  .\outHex\PCF8574.obj (PCF8574)
  .\outHex\KeyBoard.obj (KEYBOARD)
  C:\KEIL_V5\C51\LIB\C51L.LIB (?C_STARTUP)
  C:\KEIL_V5\C51\LIB\C51L.LIB (?C?CLDOPTR)
  C:\KEIL_V5\C51\LIB\C51L.LIB (?C?CLDIOPTR)
  C:\KEIL_V5\C51\LIB\C51L.LIB (?C?CILDOPTR)
  C:\KEIL_V5\C51\LIB\C51L.LIB (?C?CSTPTR)
  C:\KEIL_V5\C51\LIB\C51L.LIB (?C?CSTOPTR)
  C:\KEIL_V5\C51\LIB\C51L.LIB (?C?IMUL)
  C:\KEIL_V5\C51\LIB\C51L.LIB (?C?UIDIV)
  C:\KEIL_V5\C51\LIB\C51L.LIB (?C?SIDIV)
  C:\KEIL_V5\C51\LIB\C51L.LIB (?C?ILDPTR)
  C:\KEIL_V5\C51\LIB\C51L.LIB (?C?ILDOPTR)
  C:\KEIL_V5\C51\LIB\C51L.LIB (?C?IILDPTR)
  C:\KEIL_V5\C51\LIB\C51L.LIB (?C?ISTPTR)
  C:\KEIL_V5\C51\LIB\C51L.LIB (?C?ISTOPTR)
  C:\KEIL_V5\C51\LIB\C51L.LIB (?C?ICALL)
  C:\KEIL_V5\C51\LIB\C51L.LIB (?C_INIT)
  C:\KEIL_V5\C51\LIB\C51L.LIB (?C?IILDX)


LINK MAP OF MODULE:  .\outHex\keil5_prj (MAIN_002)


            TYPE    BASE      LENGTH    RELOCATION   SEGMENT NAME
            -----------------------------------------------------

            * * * * * * *   D A T A   M E M O R Y   * * * * * * *
            REG     0000H     0008H     ABSOLUTE     "REG BANK 0"
            IDATA   0008H     0002H     UNIT         ?ID?LCD1602
                    000AH     0016H                  *** GAP ***
            BIT     0020H.0   0000H.1   UNIT         _BIT_GROUP_
                    0020H.1   0000H.7                *** GAP ***
            IDATA   0021H     0001H     UNIT         ?STACK

            * * * * * * *  X D A T A   M E M O R Y  * * * * * * *
            XDATA   0000H     0198H     UNIT         ?XD?MAIN_002
            XDATA   0198H     0017H     UNIT         _XDATA_GROUP_
            XDATA   01AFH     000DH     UNIT         ?XD?_STR_ITOA?MYSTRING
            XDATA   01BCH     0009H     UNIT         ?XD?_IIC_RANDOM_READ_DATA?IIC
            XDATA   01C5H     0003H     UNIT         ?XD?TIMER
BL51 BANKED LINKER/LOCATER V6.22                                                      07/12/2021  20:12:08  PAGE 2


            XDATA   01C8H     0003H     UNIT         ?XD?_UART_PUTS?UART

            * * * * * * *   C O D E   M E M O R Y   * * * * * * *
            CODE    0000H     0003H     ABSOLUTE     
            CODE    0003H     0008H     INBLOCK      ?PR?LCD_READSTATUS?LCD1602
            CODE    000BH     0003H     ABSOLUTE     
            CODE    000EH     0015H     INBLOCK      ?PR?LCD_DELAY_10US?LCD1602
            CODE    0023H     0003H     ABSOLUTE     
            CODE    0026H     026BH     UNIT         ?C?LIB_CODE
            CODE    0291H     0127H     INBLOCK      ?PR?LCD_UPDATE_TIMER_HANDLE?MAIN_002
            CODE    03B8H     0115H     INBLOCK      ?PR?_STR_ITOA?MYSTRING
            CODE    04CDH     00C2H     UNIT         ?C_INITSEG
            CODE    058FH     00A7H     INBLOCK      ?PR?KEYBOARD_SCAN_TIMER_HANDLE?MAIN_002
            CODE    0636H     00A4H     INBLOCK      ?PR?_IIC_RANDOM_READ_DATA?IIC
            CODE    06DAH     008CH     UNIT         ?C_C51STARTUP
            CODE    0766H     0072H     INBLOCK      ?PR?_IIC_READ_DATA?IIC
            CODE    07D8H     0023H     INBLOCK      ?PR?_STR_DEL_CHAR?MAIN_002
            CODE    07FBH     0003H     INBLOCK      ?PR?TIMER0_INTERUPT_ENABLE?TIMER
                    07FEH     0002H                  *** GAP ***
            CODE    0800H     0070H     INBLOCK      ?PR?_STR_INIT?MAIN_002
            CODE    0870H     006BH     INBLOCK      ?PR?_IIC_WRITE_DATA?IIC
            CODE    08DBH     0060H     INBLOCK      ?PR?_KEYBOARD_IS_LOOSEN?KEYBOARD
            CODE    093BH     0051H     INBLOCK      ?PR?TIMER0_IRQ?TIMER
            CODE    098CH     004DH     INBLOCK      ?PR?_LCD_PUTS?LCD1602
            CODE    09D9H     004AH     INBLOCK      ?PR?_KEYBOARD_GET_STATUS?KEYBOARD
            CODE    0A23H     0047H     INBLOCK      ?PR?_STR_WINDOW_SET?MAIN_002
            CODE    0A6AH     0045H     INBLOCK      ?PR?IIC
            CODE    0AAFH     0042H     INBLOCK      ?PR?MAIN?MAIN_002
            CODE    0AF1H     0041H     INBLOCK      ?PR?MAIN_002
            CODE    0B32H     003BH     INBLOCK      ?PR?_PCF8574_SET_BIT?PCF8574
            CODE    0B6DH     0034H     INBLOCK      ?PR?_STR_COPY?MYSTRING
            CODE    0BA1H     002FH     INBLOCK      ?PR?IIC_READ_BYTE?IIC
            CODE    0BD0H     002EH     INBLOCK      ?PR?_UART_PUTS?UART
            CODE    0BFEH     0022H     INBLOCK      ?PR?LCD_INIT?LCD1602
            CODE    0C20H     0022H     INBLOCK      ?PR?_IIC_WRITE_BYTE?IIC
            CODE    0C42H     0020H     INBLOCK      ?PR?LCD1602
            CODE    0C62H     0020H     INBLOCK      ?PR?_PCF8574_READ_BIT?PCF8574
            CODE    0C82H     001EH     INBLOCK      ?PR?IIC_WAITACK?IIC
            CODE    0CA0H     0019H     INBLOCK      ?PR?_STR_INPUT_CHAR?MAIN_002
            CODE    0CB9H     0019H     INBLOCK      ?PR?_STR_RIGHT_MOVE?MAIN_002
            CODE    0CD2H     0019H     INBLOCK      ?PR?MYSTRING
            CODE    0CEBH     0019H     INBLOCK      ?PR?UART_INIT?UART
            CODE    0D04H     0017H     INBLOCK      ?PR?PCF8574
            CODE    0D1BH     0013H     INBLOCK      ?PR?_SOFT_TIMER_CHECK?SOFTWARE_TIMER
            CODE    0D2EH     0013H     INBLOCK      ?PR?_LCD_WRITECMD?LCD1602
            CODE    0D41H     0013H     INBLOCK      ?PR?IIC_READBIT?IIC
            CODE    0D54H     0013H     INBLOCK      ?PR?_PCF8574_READ_PORT?PCF8574
            CODE    0D67H     0012H     INBLOCK      ?PR?TIMER0_HANDLE?MAIN_002
            CODE    0D79H     0012H     INBLOCK      ?PR?SOFTWARE_TIMER
            CODE    0D8BH     0012H     INBLOCK      ?PR?_LCD_DELAYUS?LCD1602
            CODE    0D9DH     0012H     INBLOCK      ?PR?_PCF8574_WRITE_PORT?PCF8574
            CODE    0DAFH     0011H     UNIT         ?CO?MAIN_002
            CODE    0DC0H     0011H     UNIT         ?CO?LCD1602
            CODE    0DD1H     0010H     INBLOCK      ?PR?_STR_LEFT_MOVE?MAIN_002
            CODE    0DE1H     0010H     INBLOCK      ?PR?TIMER0_INIT?TIMER
            CODE    0DF1H     000EH     INBLOCK      ?PR?IIC_START?IIC
            CODE    0DFFH     000EH     INBLOCK      ?PR?_IIC_SENDBIT?IIC
BL51 BANKED LINKER/LOCATER V6.22                                                      07/12/2021  20:12:08  PAGE 3


            CODE    0E0DH     000DH     INBLOCK      ?PR?_SOFT_TIMER_STEPPER?SOFTWARE_TIMER
            CODE    0E1AH     000DH     INBLOCK      ?PR?_LCD_CLEAR?LCD1602
            CODE    0E27H     000DH     INBLOCK      ?PR?IIC_STOP?IIC
            CODE    0E34H     000CH     INBLOCK      ?PR?_STR_FOLD?MAIN_002
            CODE    0E40H     000CH     INBLOCK      ?PR?_TIMER0_SET_CALLBACK?TIMER
            CODE    0E4CH     000CH     INBLOCK      ?PR?KEYBOARD
            CODE    0E58H     000BH     INBLOCK      ?PR?UART_IRQ?UART
            CODE    0E63H     0008H     INBLOCK      ?PR?LCD_READDATA?LCD1602
            CODE    0E6BH     0008H     INBLOCK      ?PR?_LCD_WRITEDATA?LCD1602
            CODE    0E73H     0008H     INBLOCK      ?PR?_LCD_PUTCONXY?LCD1602
            CODE    0E7BH     0008H     INBLOCK      ?PR?_UART_SEND?UART
            CODE    0E83H     0006H     INBLOCK      ?PR?_PUTCHAR?UART
            CODE    0E89H     0003H     INBLOCK      ?PR?TIMER0_INTERUPT_DISABLE?TIMER



OVERLAY MAP OF MODULE:   .\outHex\keil5_prj (MAIN_002)


SEGMENT                                            BIT_GROUP          XDATA_GROUP
  +--> CALLED SEGMENT                           START    LENGTH     START    LENGTH
-----------------------------------------------------------------------------------
?C_C51STARTUP                                   -----    -----      -----    -----
  +--> ?PR?MAIN?MAIN_002
  +--> ?C_INITSEG

?PR?MAIN?MAIN_002                               -----    -----      -----    -----
  +--> ?PR?UART_INIT?UART
  +--> ?PR?LCD_INIT?LCD1602
  +--> ?PR?TIMER0_HANDLE?MAIN_002
  +--> ?PR?_TIMER0_SET_CALLBACK?TIMER
  +--> ?PR?TIMER0_INIT?TIMER
  +--> ?PR?MAIN_002
  +--> ?PR?_STR_INIT?MAIN_002
  +--> ?PR?_SOFT_TIMER_CHECK?SOFTWARE_TIMER

?PR?LCD_INIT?LCD1602                            -----    -----      -----    -----
  +--> ?PR?_LCD_WRITECMD?LCD1602

?PR?_LCD_WRITECMD?LCD1602                       -----    -----      -----    -----
  +--> ?PR?LCD1602
  +--> ?PR?LCD_DELAY_10US?LCD1602

?PR?LCD1602                                     -----    -----      -----    -----
  +--> ?PR?LCD_DELAY_10US?LCD1602

?PR?LCD_DELAY_10US?LCD1602                      -----    -----      -----    -----
  +--> ?PR?_LCD_DELAYUS?LCD1602

?PR?TIMER0_HANDLE?MAIN_002                      -----    -----      -----    -----
  +--> ?PR?_SOFT_TIMER_STEPPER?SOFTWARE_TIMER

?PR?_SOFT_TIMER_STEPPER?SOFTWARE_TIMER          -----    -----      -----    -----
  +--> ?PR?SOFTWARE_TIMER

?PR?MAIN_002                                    -----    -----      -----    -----
  +--> ?CO?MAIN_002
BL51 BANKED LINKER/LOCATER V6.22                                                      07/12/2021  20:12:08  PAGE 4



?PR?_STR_INIT?MAIN_002                          -----    -----      019AH    0003H
  +--> ?PR?MAIN_002

?PR?_SOFT_TIMER_CHECK?SOFTWARE_TIMER            -----    -----      -----    -----
  +--> ?PR?SOFTWARE_TIMER

?C_INITSEG                                      -----    -----      -----    -----
  +--> ?PR?KEYBOARD_SCAN_TIMER_HANDLE?MAIN_002
  +--> ?PR?LCD_UPDATE_TIMER_HANDLE?MAIN_002

?PR?KEYBOARD_SCAN_TIMER_HANDLE?MAIN_002         -----    -----      0198H    0002H
  +--> ?PR?_KEYBOARD_IS_LOOSEN?KEYBOARD
  +--> ?PR?MAIN_002
  +--> ?PR?_STR_INPUT_CHAR?MAIN_002
  +--> ?PR?_STR_DEL_CHAR?MAIN_002
  +--> ?PR?_STR_INIT?MAIN_002
  +--> ?PR?_STR_LEFT_MOVE?MAIN_002
  +--> ?PR?_STR_RIGHT_MOVE?MAIN_002

?PR?_KEYBOARD_IS_LOOSEN?KEYBOARD                -----    -----      019AH    0004H
  +--> ?PR?KEYBOARD
  +--> ?PR?_KEYBOARD_GET_STATUS?KEYBOARD

?PR?_KEYBOARD_GET_STATUS?KEYBOARD               -----    -----      019EH    0004H
  +--> ?PR?_PCF8574_WRITE_PORT?PCF8574
  +--> ?PR?_PCF8574_READ_BIT?PCF8574
  +--> ?PR?_PCF8574_SET_BIT?PCF8574

?PR?_PCF8574_WRITE_PORT?PCF8574                 -----    -----      01A5H    0001H
  +--> ?PR?PCF8574
  +--> ?PR?_IIC_WRITE_DATA?IIC

?PR?_IIC_WRITE_DATA?IIC                         -----    -----      01A6H    0008H
  +--> ?PR?IIC
  +--> ?PR?IIC_START?IIC
  +--> ?PR?_IIC_WRITE_BYTE?IIC
  +--> ?PR?IIC_WAITACK?IIC

?PR?IIC                                         -----    -----      -----    -----
  +--> ?PR?IIC_STOP?IIC

?PR?_IIC_WRITE_BYTE?IIC                         -----    -----      -----    -----
  +--> ?PR?_IIC_SENDBIT?IIC

?PR?IIC_WAITACK?IIC                             -----    -----      -----    -----
  +--> ?PR?IIC_READBIT?IIC

?PR?IIC_READBIT?IIC                             0020H.0  0000H.1    -----    -----

?PR?_PCF8574_READ_BIT?PCF8574                   -----    -----      01A2H    0001H
  +--> ?PR?_PCF8574_READ_PORT?PCF8574

?PR?_PCF8574_READ_PORT?PCF8574                  -----    -----      01A5H    0001H
  +--> ?PR?PCF8574
  +--> ?PR?_IIC_READ_DATA?IIC

BL51 BANKED LINKER/LOCATER V6.22                                                      07/12/2021  20:12:08  PAGE 5


?PR?_IIC_READ_DATA?IIC                          -----    -----      01A6H    0008H
  +--> ?PR?IIC
  +--> ?PR?IIC_START?IIC
  +--> ?PR?_IIC_WRITE_BYTE?IIC
  +--> ?PR?IIC_WAITACK?IIC
  +--> ?PR?IIC_READ_BYTE?IIC
  +--> ?PR?_IIC_SENDBIT?IIC

?PR?IIC_READ_BYTE?IIC                           -----    -----      01AEH    0001H
  +--> ?PR?IIC_READBIT?IIC

?PR?_PCF8574_SET_BIT?PCF8574                    -----    -----      01A2H    0003H
  +--> ?PR?_PCF8574_READ_PORT?PCF8574
  +--> ?PR?PCF8574
  +--> ?PR?_PCF8574_WRITE_PORT?PCF8574

?PR?_STR_INPUT_CHAR?MAIN_002                    -----    -----      -----    -----
  +--> ?PR?_STR_FOLD?MAIN_002

?PR?_STR_FOLD?MAIN_002                          -----    -----      -----    -----
  +--> ?PR?MAIN_002
  +--> ?PR?_STR_WINDOW_SET?MAIN_002

?PR?_STR_WINDOW_SET?MAIN_002                    -----    -----      -----    -----
  +--> ?PR?MAIN_002

?PR?_STR_DEL_CHAR?MAIN_002                      -----    -----      -----    -----
  +--> ?PR?MAIN_002
  +--> ?PR?_STR_FOLD?MAIN_002

?PR?_STR_LEFT_MOVE?MAIN_002                     -----    -----      -----    -----
  +--> ?PR?MAIN_002
  +--> ?PR?_STR_WINDOW_SET?MAIN_002

?PR?_STR_RIGHT_MOVE?MAIN_002                    -----    -----      -----    -----
  +--> ?PR?MAIN_002
  +--> ?PR?_STR_WINDOW_SET?MAIN_002

?PR?LCD_UPDATE_TIMER_HANDLE?MAIN_002            -----    -----      0198H    0003H
  +--> ?PR?MAIN_002
  +--> ?PR?_STR_COPY?MYSTRING
  +--> ?PR?TIMER0_INTERUPT_DISABLE?TIMER
  +--> ?PR?_LCD_CLEAR?LCD1602
  +--> ?PR?_LCD_PUTS?LCD1602
  +--> ?PR?TIMER0_INTERUPT_ENABLE?TIMER

?PR?_STR_COPY?MYSTRING                          -----    -----      019BH    0006H
  +--> ?PR?MYSTRING

?PR?_LCD_CLEAR?LCD1602                          -----    -----      -----    -----
  +--> ?CO?LCD1602
  +--> ?PR?_LCD_PUTS?LCD1602

?PR?_LCD_PUTS?LCD1602                           -----    -----      019BH    0005H
  +--> ?PR?_LCD_WRITECMD?LCD1602
  +--> ?PR?_LCD_WRITEDATA?LCD1602

BL51 BANKED LINKER/LOCATER V6.22                                                      07/12/2021  20:12:08  PAGE 6


?PR?_LCD_WRITEDATA?LCD1602                      -----    -----      -----    -----
  +--> ?PR?LCD1602
  +--> ?PR?LCD_DELAY_10US?LCD1602



SYMBOL TABLE OF MODULE:  .\outHex\keil5_prj (MAIN_002)

  VALUE           TYPE          NAME
  ----------------------------------

  -------         MODULE        MAIN_002
  C:0000H         SYMBOL        _ICE_DUMMY_
  D:0090H         PUBLIC        P1
  C:0E34H         PUBLIC        _STR_fold
  D:00A0H         PUBLIC        P2
  D:00B0H         PUBLIC        P3
  D:00A8H         PUBLIC        IE
  C:0CA0H         PUBLIC        _STR_input_char
  C:0800H         PUBLIC        _STR_init
  C:07D8H         PUBLIC        _STR_del_char
  C:058FH         PUBLIC        keyboard_scan_timer_Handle
  C:0CB9H         PUBLIC        _STR_right_move
  D:00B8H         PUBLIC        IP
  X:0002H         PUBLIC        lcd_update_timer
  C:0DD1H         PUBLIC        _STR_left_move
  C:0A29H         PUBLIC        _STR_window_set
  C:0AAFH         PUBLIC        main
  D:0098H         PUBLIC        SCON
  D:0088H         PUBLIC        TCON
  C:0291H         PUBLIC        lcd_update_timer_Handle
  X:0009H         PUBLIC        LCD_Disbuffer
  X:0029H         PUBLIC        str
  X:00F7H         PUBLIC        keyboard_scan_timer
  C:0D67H         PUBLIC        Timer0_Handle
  D:00C8H         PUBLIC        T2CON
  D:00D0H         PUBLIC        PSW
  X:00FEH         PUBLIC        key_num
  C:0AF1H         SYMBOL        Com0033
  C:0AF1H         SYMBOL        L?0052
  C:0AF1H         SYMBOL        L?0053
  C:0AF8H         SYMBOL        L?0054
  C:0AF8H         SYMBOL        L?0055
  C:0B03H         SYMBOL        L?0056
  C:0B14H         SYMBOL        L?0057
  C:0B17H         SYMBOL        L?0058
  C:0B1DH         SYMBOL        L?0059
  C:0B1DH         SYMBOL        L?0060
  C:0B23H         SYMBOL        L?0061
  C:0B23H         SYMBOL        L?0062
  C:0B29H         SYMBOL        L?0064
  -------         PROC          COM0033
  -------         ENDPROC       COM0033
  -------         PROC          L?0063
  -------         ENDPROC       L?0063
  -------         PROC          _STR_WINDOW_SET
  D:0001H         SYMBOL        str
BL51 BANKED LINKER/LOCATER V6.22                                                      07/12/2021  20:12:08  PAGE 7


  C:0A29H         LINE#         56
  C:0A29H         LINE#         57
  C:0A29H         LINE#         59
  C:0A38H         LINE#         61
  C:0A4DH         LINE#         62
  C:0A5CH         LINE#         63
  C:0A5CH         LINE#         64
  C:0A5FH         LINE#         65
  C:0A69H         LINE#         66
  C:0A69H         LINE#         68
  -------         ENDPROC       _STR_WINDOW_SET
  -------         PROC          _STR_FOLD
  D:0001H         SYMBOL        str
  C:0E34H         LINE#         70
  C:0E34H         LINE#         71
  C:0E34H         LINE#         72
  C:0E3DH         LINE#         73
  -------         ENDPROC       _STR_FOLD
  -------         PROC          _STR_INPUT_CHAR
  D:0001H         SYMBOL        str
  D:0005H         SYMBOL        ch
  C:0CA0H         LINE#         76
  C:0CA0H         LINE#         77
  C:0CA0H         LINE#         78
  C:0CB6H         LINE#         80
  -------         ENDPROC       _STR_INPUT_CHAR
  -------         PROC          _STR_DEL_CHAR
  D:0001H         SYMBOL        str
  C:07D8H         LINE#         83
  C:07D8H         LINE#         84
  C:07D8H         LINE#         85
  C:07E2H         LINE#         86
  C:07E2H         LINE#         87
  C:07F7H         LINE#         88
  C:07FAH         LINE#         89
  C:07FAH         LINE#         90
  -------         ENDPROC       _STR_DEL_CHAR
  -------         PROC          _STR_LEFT_MOVE
  D:0001H         SYMBOL        str
  C:0DD1H         LINE#         92
  C:0DD1H         LINE#         93
  C:0DD1H         LINE#         94
  C:0DDBH         LINE#         95
  C:0DDBH         LINE#         96
  C:0DDDH         LINE#         97
  C:0DE0H         LINE#         98
  C:0DE0H         LINE#         99
  -------         ENDPROC       _STR_LEFT_MOVE
  -------         PROC          _STR_RIGHT_MOVE
  D:0001H         SYMBOL        str
  C:0CB9H         LINE#         101
  C:0CB9H         LINE#         102
  C:0CB9H         LINE#         103
  C:0CCCH         LINE#         104
  C:0CCCH         LINE#         105
  C:0CCEH         LINE#         106
  C:0CD1H         LINE#         107
BL51 BANKED LINKER/LOCATER V6.22                                                      07/12/2021  20:12:08  PAGE 8


  C:0CD1H         LINE#         108
  -------         ENDPROC       _STR_RIGHT_MOVE
  -------         PROC          _STR_INIT
  X:019AH         SYMBOL        str
  -------         DO            
  D:0006H         SYMBOL        i
  -------         ENDDO         
  C:0800H         LINE#         110
  C:080BH         LINE#         111
  C:080BH         LINE#         112
  C:080EH         LINE#         113
  C:0814H         LINE#         114
  C:081DH         LINE#         115
  C:0824H         LINE#         116
  C:0824H         LINE#         117
  C:0824H         LINE#         118
  C:0830H         LINE#         119
  C:083BH         LINE#         120
  C:083EH         LINE#         121
  C:083EH         LINE#         122
  C:0852H         LINE#         123
  C:085DH         LINE#         124
  C:0869H         LINE#         125
  -------         ENDPROC       _STR_INIT
  -------         PROC          KEYBOARD_SCAN_TIMER_HANDLE
  -------         DO            
  X:0198H         SYMBOL        i
  D:0004H         SYMBOL        Key_Code
  -------         ENDDO         
  C:058FH         LINE#         129
  C:058FH         LINE#         130
  C:058FH         LINE#         132
  C:0590H         LINE#         134
  C:05AAH         LINE#         135
  C:05AAH         LINE#         136
  C:05C0H         LINE#         137
  C:05F3H         LINE#         146
  C:05F3H         LINE#         147
  C:05FBH         LINE#         148
  C:05FBH         LINE#         149
  C:05FFH         LINE#         150
  C:05FFH         LINE#         151
  C:0605H         LINE#         152
  C:0605H         LINE#         153
  C:0609H         LINE#         154
  C:0609H         LINE#         155
  C:060FH         LINE#         156
  C:060FH         LINE#         157
  C:0613H         LINE#         158
  C:0613H         LINE#         159
  C:0619H         LINE#         160
  C:0619H         LINE#         161
  C:061DH         LINE#         162
  C:061DH         LINE#         163
  C:0623H         LINE#         164
  C:0623H         LINE#         165
  C:0623H         LINE#         166
BL51 BANKED LINKER/LOCATER V6.22                                                      07/12/2021  20:12:08  PAGE 9


  C:0623H         LINE#         168
  C:0623H         LINE#         169
  C:0635H         LINE#         170
  -------         ENDPROC       KEYBOARD_SCAN_TIMER_HANDLE
  -------         PROC          LCD_UPDATE_TIMER_HANDLE
  -------         DO            
  X:0000H         SYMBOL        input_flash
  X:0198H         SYMBOL        dis_cursor_pos
  X:019AH         SYMBOL        dis_flash
  -------         ENDDO         
  C:0291H         LINE#         176
  C:0291H         LINE#         177
  C:0291H         LINE#         179
  C:02AEH         LINE#         180
  C:02C3H         LINE#         182
  C:02CDH         LINE#         183
  C:02D7H         LINE#         185
  C:02DAH         LINE#         186
  C:02E0H         LINE#         187
  C:02E0H         LINE#         188
  C:02E5H         LINE#         189
  C:02E7H         LINE#         191
  C:02E7H         LINE#         192
  C:030AH         LINE#         194
  C:030AH         LINE#         195
  C:0316H         LINE#         196
  C:0316H         LINE#         197
  C:0329H         LINE#         198
  C:032BH         LINE#         200
  C:032BH         LINE#         201
  C:0331H         LINE#         202
  C:0331H         LINE#         203
  C:0334H         LINE#         204
  C:0334H         LINE#         205
  C:034BH         LINE#         207
  C:034BH         LINE#         208
  C:035CH         LINE#         209
  C:035CH         LINE#         210
  C:0362H         LINE#         211
  C:0362H         LINE#         212
  C:037EH         LINE#         213
  C:037EH         LINE#         214
  C:0384H         LINE#         215
  C:0384H         LINE#         218
  C:0390H         LINE#         219
  C:039DH         LINE#         220
  C:03B5H         LINE#         221
  -------         ENDPROC       LCD_UPDATE_TIMER_HANDLE
  -------         PROC          TIMER0_HANDLE
  C:0D67H         LINE#         226
  C:0D67H         LINE#         227
  C:0D67H         LINE#         229
  C:0D70H         LINE#         230
  -------         ENDPROC       TIMER0_HANDLE
  C:0AE7H         SYMBOL        L?0065
  -------         PROC          MAIN
  C:0AAFH         LINE#         233
BL51 BANKED LINKER/LOCATER V6.22                                                      07/12/2021  20:12:08  PAGE 10


  C:0AAFH         LINE#         234
  C:0AAFH         LINE#         236
  C:0AB2H         LINE#         237
  C:0AB5H         LINE#         238
  C:0ABEH         LINE#         239
  C:0AC1H         LINE#         240
  C:0AC7H         LINE#         241
  C:0AC7H         LINE#         242
  C:0AC7H         LINE#         243
  C:0AD0H         LINE#         244
  C:0AD0H         LINE#         245
  C:0AD6H         LINE#         246
  C:0AD6H         LINE#         247
  C:0ADFH         LINE#         248
  C:0ADFH         LINE#         249
  C:0AE5H         LINE#         250
  C:0AE5H         LINE#         252
  C:0AE7H         LINE#         253
  -------         ENDPROC       MAIN
  -------         ENDMOD        MAIN_002

  -------         MODULE        TIMER
  C:0000H         SYMBOL        _ICE_DUMMY_
  D:0090H         PUBLIC        P1
  C:093BH         PUBLIC        timer0_irq
  D:00B0H         PUBLIC        P3
  B:00A8H.7       PUBLIC        EA
  D:00A8H         PUBLIC        IE
  D:00B8H         PUBLIC        IP
  C:0DE1H         PUBLIC        Timer0_Init
  D:0098H         PUBLIC        SCON
  D:0089H         PUBLIC        TMOD
  D:0088H         PUBLIC        TCON
  X:01C5H         PUBLIC        p_timer0_callback
  B:00A8H.1       PUBLIC        ET0
  D:008CH         PUBLIC        TH0
  C:0E89H         PUBLIC        Timer0_interupt_disable
  D:008AH         PUBLIC        TL0
  B:0088H.4       PUBLIC        TR0
  C:07FBH         PUBLIC        Timer0_interupt_enable
  D:00C8H         PUBLIC        T2CON
  C:0E40H         PUBLIC        _Timer0_set_callback
  D:00D0H         PUBLIC        PSW
  -------         PROC          TIMER0_INIT
  C:0DE1H         LINE#         9
  C:0DE1H         LINE#         10
  C:0DE1H         LINE#         12
  C:0DE4H         LINE#         13
  C:0DE7H         LINE#         14
  C:0DEAH         LINE#         15
  C:0DECH         LINE#         16
  C:0DEEH         LINE#         17
  C:0DF0H         LINE#         19
  -------         ENDPROC       TIMER0_INIT
  -------         PROC          TIMER0_INTERUPT_ENABLE
  C:07FBH         LINE#         21
  C:07FBH         LINE#         22
BL51 BANKED LINKER/LOCATER V6.22                                                      07/12/2021  20:12:08  PAGE 11


  C:07FBH         LINE#         23
  C:07FDH         LINE#         25
  -------         ENDPROC       TIMER0_INTERUPT_ENABLE
  -------         PROC          TIMER0_INTERUPT_DISABLE
  C:0E89H         LINE#         26
  C:0E89H         LINE#         27
  C:0E89H         LINE#         28
  C:0E8BH         LINE#         30
  -------         ENDPROC       TIMER0_INTERUPT_DISABLE
  -------         PROC          _TIMER0_SET_CALLBACK
  D:0001H         SYMBOL        pfun
  C:0E40H         LINE#         32
  C:0E40H         LINE#         33
  C:0E40H         LINE#         34
  C:0E4BH         LINE#         35
  -------         ENDPROC       _TIMER0_SET_CALLBACK
  -------         PROC          TIMER0_IRQ
  C:093BH         LINE#         37
  C:0958H         LINE#         39
  C:095AH         LINE#         40
  C:095DH         LINE#         41
  C:0960H         LINE#         43
  C:096CH         LINE#         44
  C:096CH         LINE#         46
  C:096FH         LINE#         47
  C:096FH         LINE#         48
  C:0971H         LINE#         50
  -------         ENDPROC       TIMER0_IRQ
  -------         ENDMOD        TIMER

  -------         MODULE        SOFTWARE_TIMER
  C:0000H         SYMBOL        _ICE_DUMMY_
  D:0090H         PUBLIC        P1
  D:00B0H         PUBLIC        P3
  D:00A8H         PUBLIC        IE
  D:00B8H         PUBLIC        IP
  C:0D1BH         PUBLIC        _soft_timer_check
  C:0E0DH         PUBLIC        _soft_timer_stepper
  D:0098H         PUBLIC        SCON
  D:0088H         PUBLIC        TCON
  D:00C8H         PUBLIC        T2CON
  D:00D0H         PUBLIC        PSW
  C:0D79H         SYMBOL        Com0006
  C:0D79H         SYMBOL        L?0007
  -------         PROC          COM0006
  -------         ENDPROC       COM0006
  -------         PROC          _SOFT_TIMER_STEPPER
  D:0001H         SYMBOL        timer
  C:0E0DH         LINE#         11
  C:0E0DH         LINE#         12
  C:0E0DH         LINE#         13
  C:0E12H         LINE#         14
  C:0E12H         LINE#         15
  C:0E19H         LINE#         16
  C:0E19H         LINE#         18
  -------         ENDPROC       _SOFT_TIMER_STEPPER
  -------         PROC          _SOFT_TIMER_CHECK
BL51 BANKED LINKER/LOCATER V6.22                                                      07/12/2021  20:12:08  PAGE 12


  D:0001H         SYMBOL        timer
  C:0D1BH         LINE#         22
  C:0D1BH         LINE#         23
  C:0D1BH         LINE#         24
  C:0D21H         LINE#         25
  C:0D21H         LINE#         26
  C:0D26H         LINE#         27
  C:0D2BH         LINE#         28
  C:0D2BH         LINE#         30
  C:0D2BH         LINE#         31
  C:0D2DH         LINE#         32
  C:0D2DH         LINE#         33
  -------         ENDPROC       _SOFT_TIMER_CHECK
  -------         ENDMOD        SOFTWARE_TIMER

  -------         MODULE        LCD1602
  C:0000H         SYMBOL        _ICE_DUMMY_
  D:0090H         PUBLIC        P1
  D:00A0H         PUBLIC        P2
  D:00B0H         PUBLIC        P3
  C:0E73H         PUBLIC        _LCD_PutcOnxy
  D:00A8H         PUBLIC        IE
  D:00B8H         PUBLIC        IP
  C:0E1AH         PUBLIC        _LCD_Clear
  I:0008H         PUBLIC        lcd_delay_us_set
  C:0E63H         PUBLIC        LCD_ReadData
  C:0D8BH         PUBLIC        _LCD_delayus
  D:0098H         PUBLIC        SCON
  D:0088H         PUBLIC        TCON
  C:0003H         PUBLIC        LCD_ReadStatus
  C:0E6BH         PUBLIC        _LCD_WriteData
  C:0BFEH         PUBLIC        LCD_Init
  C:0D39H         PUBLIC        _LCD_WriteCmd
  B:00A0H.5       PUBLIC        LCD_RS
  B:00A0H.6       PUBLIC        LCD_RW
  C:098CH         PUBLIC        _LCD_Puts
  D:00C8H         PUBLIC        T2CON
  C:000EH         PUBLIC        LCD_delay_10us
  B:00A0H.7       PUBLIC        LCD_E
  D:00D0H         PUBLIC        PSW
  C:0C42H         SYMBOL        Com0013
  C:0C42H         SYMBOL        L?0020
  C:0C56H         SYMBOL        L?0022
  -------         PROC          COM0013
  -------         ENDPROC       COM0013
  -------         PROC          _LCD_DELAYUS
  D:0006H         SYMBOL        us
  -------         DO            
  D:0006H         SYMBOL        i
  -------         ENDDO         
  C:0D8BH         LINE#         5
  C:0D8BH         LINE#         6
  C:0D8BH         LINE#         7
  C:0D92H         LINE#         8
  C:0D9CH         LINE#         9
  -------         ENDPROC       _LCD_DELAYUS
  -------         PROC          LCD_DELAY_10US
BL51 BANKED LINKER/LOCATER V6.22                                                      07/12/2021  20:12:08  PAGE 13


  C:000EH         LINE#         12
  C:000EH         LINE#         13
  C:000EH         LINE#         14
  C:001FH         LINE#         15
  C:001FH         LINE#         17
  C:001FH         LINE#         19
  C:001FH         LINE#         20
  C:0022H         LINE#         21
  C:0022H         LINE#         22
  -------         ENDPROC       LCD_DELAY_10US
  -------         PROC          LCD_READSTATUS
  -------         DO            
  D:0003H         SYMBOL        Data
  -------         ENDDO         
  C:0003H         LINE#         24
  C:0003H         LINE#         25
  C:0003H         LINE#         26
  C:0005H         LINE#         27
  C:0007H         LINE#         28
  C:0007H         LINE#         29
  C:0007H         LINE#         30
  C:0007H         LINE#         31
  C:0007H         LINE#         32
  C:0007H         LINE#         33
  C:0007H         LINE#         34
  C:0007H         LINE#         35
  C:000AH         LINE#         36
  -------         ENDPROC       LCD_READSTATUS
  -------         PROC          LCD_READDATA
  -------         DO            
  D:0003H         SYMBOL        Data
  -------         ENDDO         
  C:0E63H         LINE#         38
  C:0E63H         LINE#         39
  C:0E63H         LINE#         40
  C:0E65H         LINE#         42
  C:0E67H         LINE#         43
  C:0E67H         LINE#         44
  C:0E67H         LINE#         45
  C:0E67H         LINE#         46
  C:0E67H         LINE#         47
  C:0E67H         LINE#         48
  C:0E67H         LINE#         49
  C:0E67H         LINE#         50
  C:0E6AH         LINE#         51
  -------         ENDPROC       LCD_READDATA
  -------         PROC          L?0021
  -------         ENDPROC       L?0021
  -------         PROC          _LCD_WRITECMD
  D:0007H         SYMBOL        Cmd
  C:0D39H         LINE#         53
  C:0D39H         LINE#         54
  C:0D39H         LINE#         55
  C:0D3BH         LINE#         56
  C:0D3BH         LINE#         57
  C:0D3BH         LINE#         58
  C:0D3BH         LINE#         59
BL51 BANKED LINKER/LOCATER V6.22                                                      07/12/2021  20:12:08  PAGE 14


  C:0D3BH         LINE#         60
  C:0D3EH         LINE#         61
  -------         ENDPROC       _LCD_WRITECMD
  -------         PROC          _LCD_WRITEDATA
  D:0007H         SYMBOL        Data
  C:0E6BH         LINE#         64
  C:0E6BH         LINE#         65
  C:0E6BH         LINE#         66
  C:0E6DH         LINE#         67
  C:0E6DH         LINE#         68
  C:0E6DH         LINE#         69
  C:0E6DH         LINE#         70
  C:0E6DH         LINE#         71
  C:0E70H         LINE#         72
  -------         ENDPROC       _LCD_WRITEDATA
  -------         PROC          LCD_INIT
  C:0BFEH         LINE#         80
  C:0BFEH         LINE#         81
  C:0BFEH         LINE#         82
  C:0C05H         LINE#         83
  C:0C0AH         LINE#         84
  C:0C0FH         LINE#         85
  C:0C14H         LINE#         86
  C:0C19H         LINE#         87
  C:0C1FH         LINE#         88
  -------         ENDPROC       LCD_INIT
  -------         PROC          _LCD_PUTCONXY
  D:0007H         SYMBOL        x
  D:0005H         SYMBOL        y
  D:0003H         SYMBOL        Data
  C:0E73H         LINE#         100
  C:0E73H         LINE#         101
  C:0E73H         LINE#         103
  C:0E76H         LINE#         104
  -------         ENDPROC       _LCD_PUTCONXY
  -------         PROC          _LCD_PUTS
  D:0007H         SYMBOL        x
  D:0005H         SYMBOL        y
  X:019BH         SYMBOL        str
  -------         DO            
  X:019EH         SYMBOL        i
  -------         ENDDO         
  C:098CH         LINE#         107
  C:0997H         LINE#         108
  C:0997H         LINE#         109
  C:099CH         LINE#         110
  C:099FH         LINE#         111
  C:09C5H         LINE#         112
  C:09C5H         LINE#         113
  C:09C8H         LINE#         114
  C:09D6H         LINE#         115
  C:09D8H         LINE#         117
  -------         ENDPROC       _LCD_PUTS
  -------         PROC          _LCD_CLEAR
  D:0006H         SYMBOL        line_y
  C:0E1AH         LINE#         119
  C:0E1AH         LINE#         120
BL51 BANKED LINKER/LOCATER V6.22                                                      07/12/2021  20:12:08  PAGE 15


  C:0E1AH         LINE#         121
  -------         ENDPROC       _LCD_CLEAR
  -------         ENDMOD        LCD1602

  -------         MODULE        MYSTRING
  C:0000H         SYMBOL        _ICE_DUMMY_
  C:03B8H         PUBLIC        _str_itoa
  C:0B6DH         PUBLIC        _str_copy
  C:0CD2H         SYMBOL        Com0010
  C:0CD2H         SYMBOL        L?0017
  C:0CD2H         SYMBOL        L?0018
  C:0CD5H         SYMBOL        L?0019
  C:0CDEH         SYMBOL        L?0020
  -------         PROC          COM0010
  -------         ENDPROC       COM0010
  -------         PROC          _STR_ITOA
  X:01AFH         SYMBOL        buffer
  X:01B2H         SYMBOL        int_data
  -------         DO            
  X:01B4H         SYMBOL        i
  X:01B6H         SYMBOL        temp
  X:01B8H         SYMBOL        buffer_index
  X:01BAH         SYMBOL        div
  -------         ENDDO         
  C:03B8H         LINE#         3
  C:03C9H         LINE#         4
  C:03C9H         LINE#         5
  C:03CEH         LINE#         6
  C:03D2H         LINE#         7
  C:03D6H         LINE#         8
  C:03DEH         LINE#         10
  C:03E6H         LINE#         11
  C:03E6H         LINE#         12
  C:03EEH         LINE#         13
  C:0403H         LINE#         14
  C:0403H         LINE#         17
  C:041EH         LINE#         18
  C:041EH         LINE#         19
  C:0422H         LINE#         20
  C:0422H         LINE#         21
  C:0441H         LINE#         22
  C:0441H         LINE#         23
  C:045FH         LINE#         24
  C:0472H         LINE#         25
  C:0472H         LINE#         26
  C:048CH         LINE#         27
  C:049AH         LINE#         28
  C:049AH         LINE#         29
  C:04A8H         LINE#         31
  C:04BAH         LINE#         33
  C:04C4H         LINE#         34
  C:04C4H         LINE#         35
  C:04CCH         LINE#         36
  C:04CCH         LINE#         39
  -------         ENDPROC       _STR_ITOA
  -------         PROC          _STR_COPY
  X:019BH         SYMBOL        des
BL51 BANKED LINKER/LOCATER V6.22                                                      07/12/2021  20:12:08  PAGE 16


  X:019EH         SYMBOL        src
  -------         DO            
  D:0006H         SYMBOL        i
  -------         ENDDO         
  C:0B6DH         LINE#         41
  C:0B78H         LINE#         42
  C:0B78H         LINE#         43
  C:0B7BH         LINE#         44
  C:0B8BH         LINE#         45
  C:0B8BH         LINE#         46
  C:0B99H         LINE#         47
  C:0B9EH         LINE#         48
  C:0BA0H         LINE#         50
  -------         ENDPROC       _STR_COPY
  -------         ENDMOD        MYSTRING

  -------         MODULE        IIC
  C:0000H         SYMBOL        _ICE_DUMMY_
  C:0C82H         PUBLIC        iic_waitack
  D:0090H         PUBLIC        P1
  D:00B0H         PUBLIC        P3
  C:0DFFH         PUBLIC        _iic_sendbit
  D:00A8H         PUBLIC        IE
  C:0636H         PUBLIC        _iic_random_read_data
  D:00B8H         PUBLIC        IP
  C:0766H         PUBLIC        _iic_read_data
  D:0098H         PUBLIC        SCON
  D:0088H         PUBLIC        TCON
  C:0870H         PUBLIC        _iic_write_data
  C:0DF4H         PUBLIC        iic_start
  C:0BA1H         PUBLIC        iic_read_byte
  B:00B0H.5       PUBLIC        SDA
  C:0C20H         PUBLIC        _iic_write_byte
  C:0E27H         PUBLIC        iic_stop
  B:00B0H.4       PUBLIC        SCL
  D:00C8H         PUBLIC        T2CON
  C:0D41H         PUBLIC        iic_readbit
  D:00D0H         PUBLIC        PSW
  C:0A6AH         SYMBOL        Com0034
  C:0A6AH         SYMBOL        L?0053
  C:0A73H         SYMBOL        L?0054
  C:0A7DH         SYMBOL        L?0055
  C:0A7DH         SYMBOL        L?0056
  C:0A87H         SYMBOL        L?0057
  C:0A95H         SYMBOL        L?0059
  C:0A95H         SYMBOL        L?0060
  C:0A9DH         SYMBOL        L?0061
  C:0A9DH         SYMBOL        L?0062
  C:0AA5H         SYMBOL        L?0064
  -------         PROC          COM0034
  -------         ENDPROC       COM0034
  -------         PROC          L?0063
  -------         ENDPROC       L?0063
  -------         PROC          IIC_START
  C:0DF4H         LINE#         7
  C:0DF4H         LINE#         8
  C:0DF4H         LINE#         9
BL51 BANKED LINKER/LOCATER V6.22                                                      07/12/2021  20:12:08  PAGE 17


  C:0DF6H         LINE#         10
  C:0DF8H         LINE#         11
  C:0DF8H         LINE#         12
  C:0DFAH         LINE#         13
  C:0DFAH         LINE#         14
  C:0DFCH         LINE#         15
  C:0DFEH         LINE#         16
  -------         ENDPROC       IIC_START
  -------         PROC          IIC_STOP
  C:0E27H         LINE#         18
  C:0E27H         LINE#         19
  C:0E27H         LINE#         20
  C:0E29H         LINE#         21
  C:0E2BH         LINE#         22
  C:0E2DH         LINE#         23
  C:0E2DH         LINE#         24
  C:0E2FH         LINE#         25
  C:0E2FH         LINE#         26
  C:0E31H         LINE#         27
  C:0E33H         LINE#         28
  -------         ENDPROC       IIC_STOP
  -------         PROC          _IIC_SENDBIT
  D:0007H         SYMBOL        bit_data
  C:0DFFH         LINE#         30
  C:0DFFH         LINE#         31
  C:0DFFH         LINE#         32
  C:0E01H         LINE#         33
  C:0E06H         LINE#         34
  C:0E06H         LINE#         35
  C:0E08H         LINE#         36
  C:0E08H         LINE#         37
  C:0E0AH         LINE#         38
  C:0E0CH         LINE#         39
  -------         ENDPROC       _IIC_SENDBIT
  -------         PROC          IIC_READBIT
  -------         DO            
  B:0020H.0       SYMBOL        ret
  -------         ENDDO         
  C:0D41H         LINE#         41
  C:0D41H         LINE#         42
  C:0D41H         LINE#         43
  C:0D43H         LINE#         44
  C:0D45H         LINE#         45
  C:0D47H         LINE#         46
  C:0D47H         LINE#         47
  C:0D49H         LINE#         48
  C:0D49H         LINE#         49
  C:0D4DH         LINE#         50
  C:0D4FH         LINE#         51
  C:0D51H         LINE#         52
  C:0D53H         LINE#         53
  -------         ENDPROC       IIC_READBIT
  -------         PROC          _IIC_WRITE_BYTE
  D:0006H         SYMBOL        writedata
  -------         DO            
  D:0004H         SYMBOL        i
  -------         ENDDO         
BL51 BANKED LINKER/LOCATER V6.22                                                      07/12/2021  20:12:08  PAGE 18


  C:0C20H         LINE#         55
  C:0C22H         LINE#         56
  C:0C22H         LINE#         59
  C:0C25H         LINE#         60
  C:0C25H         LINE#         61
  C:0C29H         LINE#         62
  C:0C29H         LINE#         63
  C:0C2BH         LINE#         64
  C:0C2DH         LINE#         66
  C:0C2DH         LINE#         67
  C:0C32H         LINE#         68
  C:0C32H         LINE#         69
  C:0C36H         LINE#         70
  C:0C41H         LINE#         72
  -------         ENDPROC       _IIC_WRITE_BYTE
  -------         PROC          IIC_READ_BYTE
  -------         DO            
  D:0006H         SYMBOL        i
  D:0001H         SYMBOL        readdata
  X:01AEH         SYMBOL        readdata_bit
  -------         ENDDO         
  C:0BA1H         LINE#         74
  C:0BA1H         LINE#         75
  C:0BA1H         LINE#         77
  C:0BA3H         LINE#         78
  C:0BA7H         LINE#         79
  C:0BAAH         LINE#         80
  C:0BAAH         LINE#         81
  C:0BB3H         LINE#         82
  C:0BC2H         LINE#         83
  C:0BCDH         LINE#         84
  C:0BCFH         LINE#         85
  -------         ENDPROC       IIC_READ_BYTE
  -------         PROC          IIC_WAITACK
  -------         DO            
  D:0006H         SYMBOL        timeout
  -------         ENDDO         
  C:0C82H         LINE#         87
  C:0C82H         LINE#         88
  C:0C82H         LINE#         90
  C:0C85H         LINE#         91
  C:0C8AH         LINE#         92
  C:0C8AH         LINE#         93
  C:0C8FH         LINE#         94
  C:0C9AH         LINE#         95
  C:0C9AH         LINE#         96
  C:0C9DH         LINE#         97
  C:0C9DH         LINE#         98
  C:0C9DH         LINE#         100
  C:0C9FH         LINE#         101
  -------         ENDPROC       IIC_WAITACK
  -------         PROC          _IIC_READ_DATA
  D:0007H         SYMBOL        iic_address
  X:01A7H         SYMBOL        buffer
  X:01AAH         SYMBOL        length
  -------         DO            
  X:01ACH         SYMBOL        i
BL51 BANKED LINKER/LOCATER V6.22                                                      07/12/2021  20:12:08  PAGE 19


  -------         ENDDO         
  C:0766H         LINE#         103
  C:0769H         LINE#         104
  C:0769H         LINE#         105
  C:076FH         LINE#         106
  C:0772H         LINE#         107
  C:0775H         LINE#         108
  C:0778H         LINE#         109
  C:077BH         LINE#         110
  C:0781H         LINE#         111
  C:0781H         LINE#         112
  C:0784H         LINE#         113
  C:0784H         LINE#         116
  C:07A0H         LINE#         117
  C:07A0H         LINE#         118
  C:07AFH         LINE#         119
  C:07BBH         LINE#         120
  C:07BBH         LINE#         121
  C:07BDH         LINE#         122
  C:07BFH         LINE#         124
  C:07BFH         LINE#         125
  C:07C4H         LINE#         126
  C:07C4H         LINE#         128
  C:07D4H         LINE#         130
  C:07D4H         LINE#         132
  C:07D7H         LINE#         133
  -------         ENDPROC       _IIC_READ_DATA
  C:06D0H         SYMBOL        L?0058
  -------         PROC          _IIC_RANDOM_READ_DATA
  X:01BCH         SYMBOL        iic_address
  X:01BDH         SYMBOL        data_address
  X:01BEH         SYMBOL        buffer
  X:01C1H         SYMBOL        length
  -------         DO            
  X:01C3H         SYMBOL        i
  D:0003H         SYMBOL        iic_address_merge_rw
  -------         ENDDO         
  C:0636H         LINE#         135
  C:063FH         LINE#         136
  C:063FH         LINE#         137
  C:0645H         LINE#         139
  C:0648H         LINE#         140
  C:064EH         LINE#         141
  C:0650H         LINE#         142
  C:0650H         LINE#         143
  C:0655H         LINE#         144
  C:0655H         LINE#         145
  C:0658H         LINE#         146
  C:0658H         LINE#         148
  C:0660H         LINE#         149
  C:0666H         LINE#         150
  C:0666H         LINE#         151
  C:0669H         LINE#         152
  C:0669H         LINE#         154
  C:066CH         LINE#         155
  C:0672H         LINE#         156
  C:0674H         LINE#         157
BL51 BANKED LINKER/LOCATER V6.22                                                      07/12/2021  20:12:08  PAGE 20


  C:0674H         LINE#         158
  C:0679H         LINE#         159
  C:0679H         LINE#         160
  C:067CH         LINE#         161
  C:067CH         LINE#         163
  C:0698H         LINE#         164
  C:0698H         LINE#         165
  C:06A7H         LINE#         166
  C:06B3H         LINE#         167
  C:06B3H         LINE#         168
  C:06B5H         LINE#         169
  C:06B7H         LINE#         171
  C:06B7H         LINE#         172
  C:06BCH         LINE#         173
  C:06BCH         LINE#         175
  C:06CCH         LINE#         177
  C:06CCH         LINE#         179
  C:06CFH         LINE#         180
  -------         ENDPROC       _IIC_RANDOM_READ_DATA
  -------         PROC          _IIC_WRITE_DATA
  D:0007H         SYMBOL        iic_address
  X:01A7H         SYMBOL        buffer
  X:01AAH         SYMBOL        length
  -------         DO            
  X:01ACH         SYMBOL        i
  -------         ENDDO         
  C:0870H         LINE#         182
  C:0873H         LINE#         183
  C:0873H         LINE#         184
  C:087CH         LINE#         186
  C:087FH         LINE#         187
  C:0882H         LINE#         188
  C:0885H         LINE#         189
  C:0888H         LINE#         191
  C:088EH         LINE#         192
  C:088EH         LINE#         193
  C:0891H         LINE#         194
  C:0891H         LINE#         197
  C:08ACH         LINE#         198
  C:08ACH         LINE#         199
  C:08BEH         LINE#         200
  C:08C4H         LINE#         201
  C:08C4H         LINE#         202
  C:08C7H         LINE#         203
  C:08C7H         LINE#         204
  C:08D7H         LINE#         206
  C:08D7H         LINE#         208
  C:08DAH         LINE#         209
  -------         ENDPROC       _IIC_WRITE_DATA
  -------         ENDMOD        IIC

  -------         MODULE        UART
  C:0000H         SYMBOL        _ICE_DUMMY_
  D:0090H         PUBLIC        P1
  D:00B0H         PUBLIC        P3
  B:00A8H.7       PUBLIC        EA
  C:0E7BH         PUBLIC        _Uart_Send
BL51 BANKED LINKER/LOCATER V6.22                                                      07/12/2021  20:12:08  PAGE 21


  D:00A8H         PUBLIC        IE
  B:00A8H.4       PUBLIC        ES
  D:00B8H         PUBLIC        IP
  B:0098H.0       PUBLIC        RI
  B:0098H.1       PUBLIC        TI
  D:0099H         PUBLIC        SBUF
  D:0087H         PUBLIC        PCON
  D:0098H         PUBLIC        SCON
  C:0CEBH         PUBLIC        Uart_init
  D:0089H         PUBLIC        TMOD
  D:0088H         PUBLIC        TCON
  C:0BD0H         PUBLIC        _Uart_puts
  D:008DH         PUBLIC        TH1
  B:0098H.7       PUBLIC        SM0
  B:0098H.6       PUBLIC        SM1
  D:008BH         PUBLIC        TL1
  B:0088H.6       PUBLIC        TR1
  B:0098H.4       PUBLIC        REN
  D:00C8H         PUBLIC        T2CON
  C:0E58H         PUBLIC        Uart_IRQ
  D:00D0H         PUBLIC        PSW
  C:0E83H         PUBLIC        _putchar
  -------         PROC          UART_INIT
  C:0CEBH         LINE#         4
  C:0CEBH         LINE#         5
  C:0CEBH         LINE#         6
  C:0CEEH         LINE#         7
  C:0CF1H         LINE#         8
  C:0CF4H         LINE#         9
  C:0CF6H         LINE#         10
  C:0CF8H         LINE#         11
  C:0CFAH         LINE#         12
  C:0CFDH         LINE#         14
  C:0CFFH         LINE#         15
  C:0D01H         LINE#         16
  C:0D03H         LINE#         18
  -------         ENDPROC       UART_INIT
  -------         PROC          _UART_SEND
  D:0007H         SYMBOL        Data
  C:0E7BH         LINE#         20
  C:0E7BH         LINE#         21
  C:0E7BH         LINE#         22
  C:0E7DH         LINE#         23
  C:0E80H         LINE#         24
  C:0E82H         LINE#         26
  -------         ENDPROC       _UART_SEND
  -------         PROC          _PUTCHAR
  D:0006H         SYMBOL        c
  C:0E83H         LINE#         28
  C:0E85H         LINE#         29
  C:0E85H         LINE#         31
  C:0E88H         LINE#         32
  C:0E88H         LINE#         34
  -------         ENDPROC       _PUTCHAR
  -------         PROC          _UART_PUTS
  X:01C8H         SYMBOL        str
  -------         DO            
BL51 BANKED LINKER/LOCATER V6.22                                                      07/12/2021  20:12:08  PAGE 22


  D:0004H         SYMBOL        i
  -------         ENDDO         
  C:0BD0H         LINE#         36
  C:0BDBH         LINE#         37
  C:0BDBH         LINE#         38
  C:0BDEH         LINE#         41
  C:0BF3H         LINE#         42
  C:0BF3H         LINE#         43
  C:0BF6H         LINE#         44
  C:0BFBH         LINE#         45
  C:0BFDH         LINE#         47
  -------         ENDPROC       _UART_PUTS
  -------         PROC          UART_IRQ
  C:0E58H         LINE#         49
  C:0E58H         LINE#         52
  C:0E5BH         LINE#         53
  C:0E5BH         LINE#         54
  C:0E5DH         LINE#         57
  C:0E5DH         LINE#         59
  C:0E60H         LINE#         60
  C:0E60H         LINE#         61
  C:0E62H         LINE#         63
  C:0E62H         LINE#         65
  -------         ENDPROC       UART_IRQ
  -------         ENDMOD        UART

  -------         MODULE        PCF8574
  C:0000H         SYMBOL        _ICE_DUMMY_
  D:0090H         PUBLIC        P1
  D:00B0H         PUBLIC        P3
  C:0B32H         PUBLIC        _PCF8574_set_bit
  D:00A8H         PUBLIC        IE
  D:00B8H         PUBLIC        IP
  D:0098H         PUBLIC        SCON
  D:0088H         PUBLIC        TCON
  C:0C62H         PUBLIC        _PCF8574_read_bit
  C:0D54H         PUBLIC        _PCF8574_read_port
  D:00C8H         PUBLIC        T2CON
  C:0D9DH         PUBLIC        _PCF8574_write_port
  D:00D0H         PUBLIC        PSW
  C:0D04H         SYMBOL        Com000F
  C:0D04H         SYMBOL        L?0016
  C:0D10H         SYMBOL        L?0017
  -------         PROC          COM000F
  -------         ENDPROC       COM000F
  -------         PROC          _PCF8574_WRITE_PORT
  D:0007H         SYMBOL        chip_id
  D:0005H         SYMBOL        port_data
  -------         DO            
  X:01A5H         SYMBOL        buffer
  -------         ENDDO         
  C:0D9DH         LINE#         7
  C:0D9DH         LINE#         8
  C:0D9DH         LINE#         10
  C:0DA2H         LINE#         11
  -------         ENDPROC       _PCF8574_WRITE_PORT
  -------         PROC          _PCF8574_READ_PORT
BL51 BANKED LINKER/LOCATER V6.22                                                      07/12/2021  20:12:08  PAGE 23


  D:0007H         SYMBOL        chip_id
  -------         DO            
  X:01A5H         SYMBOL        buffer
  -------         ENDDO         
  C:0D54H         LINE#         14
  C:0D54H         LINE#         15
  C:0D54H         LINE#         17
  C:0D61H         LINE#         18
  C:0D66H         LINE#         19
  -------         ENDPROC       _PCF8574_READ_PORT
  -------         PROC          _PCF8574_SET_BIT
  X:01A2H         SYMBOL        chip_id
  X:01A3H         SYMBOL        bit_num
  X:01A4H         SYMBOL        bit_set
  -------         DO            
  D:0006H         SYMBOL        port_data
  -------         ENDDO         
  C:0B32H         LINE#         21
  C:0B3FH         LINE#         22
  C:0B3FH         LINE#         23
  C:0B44H         LINE#         24
  C:0B4AH         LINE#         25
  C:0B4AH         LINE#         26
  C:0B55H         LINE#         27
  C:0B57H         LINE#         29
  C:0B57H         LINE#         30
  C:0B63H         LINE#         31
  C:0B63H         LINE#         32
  -------         ENDPROC       _PCF8574_SET_BIT
  -------         PROC          _PCF8574_READ_BIT
  D:0007H         SYMBOL        chip_id
  X:01A2H         SYMBOL        bit_num
  -------         DO            
  D:0007H         SYMBOL        port_data
  -------         ENDDO         
  C:0C62H         LINE#         36
  C:0C67H         LINE#         37
  C:0C67H         LINE#         38
  C:0C6AH         LINE#         39
  C:0C7BH         LINE#         40
  C:0C7DH         LINE#         41
  C:0C7DH         LINE#         42
  C:0C7FH         LINE#         43
  C:0C7FH         LINE#         45
  C:0C7FH         LINE#         46
  C:0C81H         LINE#         47
  C:0C81H         LINE#         49
  -------         ENDPROC       _PCF8574_READ_BIT
  -------         ENDMOD        PCF8574

  -------         MODULE        KEYBOARD
  C:0000H         SYMBOL        _ICE_DUMMY_
  C:09D9H         PUBLIC        _KeyBoard_get_status
  C:08DBH         PUBLIC        _KeyBoard_is_loosen
  C:0E4CH         SYMBOL        Com0006
  C:0E4CH         SYMBOL        L?0007
  C:0E4CH         SYMBOL        L?0008
BL51 BANKED LINKER/LOCATER V6.22                                                      07/12/2021  20:12:08  PAGE 24


  -------         PROC          COM0006
  -------         ENDPROC       COM0006
  C:0A19H         SYMBOL        L?0009
  -------         PROC          _KEYBOARD_GET_STATUS
  X:019EH         SYMBOL        x
  X:01A0H         SYMBOL        y
  -------         DO            
  D:0007H         SYMBOL        is_key_press
  -------         ENDDO         
  C:09D9H         LINE#         15
  C:09E7H         LINE#         16
  C:09E7H         LINE#         17
  C:09E9H         LINE#         18
  C:09F0H         LINE#         19
  C:09F7H         LINE#         20
  C:0A00H         LINE#         21
  C:0A07H         LINE#         22
  C:0A0FH         LINE#         23
  C:0A18H         LINE#         24
  -------         ENDPROC       _KEYBOARD_GET_STATUS
  -------         PROC          _KEYBOARD_IS_LOOSEN
  X:019AH         SYMBOL        key
  -------         DO            
  X:019DH         SYMBOL        key_is_loosen
  -------         ENDDO         
  C:08DBH         LINE#         26
  C:08E6H         LINE#         27
  C:08E6H         LINE#         28
  C:08E9H         LINE#         29
  C:0908H         LINE#         30
  C:091CH         LINE#         31
  C:091CH         LINE#         32
  C:0926H         LINE#         33
  C:0926H         LINE#         34
  C:0935H         LINE#         35
  C:093AH         LINE#         36
  -------         ENDPROC       _KEYBOARD_IS_LOOSEN
  -------         ENDMOD        KEYBOARD

  -------         MODULE        ?C?CLDOPTR
  C:0026H         PUBLIC        ?C?CLDOPTR
  -------         ENDMOD        ?C?CLDOPTR

  -------         MODULE        ?C?CLDIOPTR
  C:0053H         PUBLIC        ?C?CLDIOPTR
  -------         ENDMOD        ?C?CLDIOPTR

  -------         MODULE        ?C?CILDOPTR
  C:008AH         PUBLIC        ?C?CILDOPTR
  -------         ENDMOD        ?C?CILDOPTR

  -------         MODULE        ?C?CSTPTR
  C:00BDH         PUBLIC        ?C?CSTPTR
  -------         ENDMOD        ?C?CSTPTR

  -------         MODULE        ?C?CSTOPTR
  C:00CFH         PUBLIC        ?C?CSTOPTR
BL51 BANKED LINKER/LOCATER V6.22                                                      07/12/2021  20:12:08  PAGE 25


  -------         ENDMOD        ?C?CSTOPTR

  -------         MODULE        ?C?IMUL
  C:00F1H         PUBLIC        ?C?IMUL
  -------         ENDMOD        ?C?IMUL

  -------         MODULE        ?C?UIDIV
  C:0103H         PUBLIC        ?C?UIDIV
  -------         ENDMOD        ?C?UIDIV

  -------         MODULE        ?C?SIDIV
  C:0158H         PUBLIC        ?C?SIDIV
  -------         ENDMOD        ?C?SIDIV

  -------         MODULE        ?C?ILDPTR
  C:018EH         PUBLIC        ?C?ILDPTR
  -------         ENDMOD        ?C?ILDPTR

  -------         MODULE        ?C?ILDOPTR
  C:01B9H         PUBLIC        ?C?ILDOPTR
  -------         ENDMOD        ?C?ILDOPTR

  -------         MODULE        ?C?IILDPTR
  C:01F1H         PUBLIC        ?C?IILDPTR
  -------         ENDMOD        ?C?IILDPTR

  -------         MODULE        ?C?ISTPTR
  C:0229H         PUBLIC        ?C?ISTPTR
  -------         ENDMOD        ?C?ISTPTR

  -------         MODULE        ?C?ISTOPTR
  C:0248H         PUBLIC        ?C?ISTOPTR
  -------         ENDMOD        ?C?ISTOPTR

  -------         MODULE        ?C?ICALL
  C:0275H         PUBLIC        ?C?ICALL
  C:0279H         PUBLIC        ?C?ICALL2
  -------         ENDMOD        ?C?ICALL

  -------         MODULE        ?C?IILDX
  C:027BH         PUBLIC        ?C?IILDX
  -------         ENDMOD        ?C?IILDX

*** WARNING L16: UNCALLED SEGMENT, IGNORED FOR OVERLAY PROCESS
    SEGMENT: ?PR?LCD_READSTATUS?LCD1602

*** WARNING L16: UNCALLED SEGMENT, IGNORED FOR OVERLAY PROCESS
    SEGMENT: ?PR?LCD_READDATA?LCD1602

*** WARNING L16: UNCALLED SEGMENT, IGNORED FOR OVERLAY PROCESS
    SEGMENT: ?PR?_LCD_PUTCONXY?LCD1602

*** WARNING L16: UNCALLED SEGMENT, IGNORED FOR OVERLAY PROCESS
    SEGMENT: ?PR?_STR_ITOA?MYSTRING

*** WARNING L16: UNCALLED SEGMENT, IGNORED FOR OVERLAY PROCESS
    SEGMENT: ?PR?_IIC_RANDOM_READ_DATA?IIC
BL51 BANKED LINKER/LOCATER V6.22                                                      07/12/2021  20:12:08  PAGE 26



*** WARNING L16: UNCALLED SEGMENT, IGNORED FOR OVERLAY PROCESS
    SEGMENT: ?PR?_UART_PUTS?UART

Program Size: data=11.1 xdata=459 code=3722
LINK/LOCATE RUN COMPLETE.  6 WARNING(S),  0 ERROR(S)
